; ModuleID = '48/1760.c'
source_filename = "48/1760.c"
target datalayout = "e-m:e-p270:32:32-p271:32:32-p272:64:64-i64:64-f80:128-n8:16:32:64-S128"
target triple = "x86_64-pc-linux-gnu"

@.str = private unnamed_addr constant [6 x i8] c"%d %d\00", align 1
@.str.1 = private unnamed_addr constant [3 x i8] c"%d\00", align 1
@.str.2 = private unnamed_addr constant [4 x i8] c" %d\00", align 1
@.str.3 = private unnamed_addr constant [2 x i8] c"\0A\00", align 1

; Function Attrs: noinline nounwind uwtable
define dso_local i32 @main() #0 {
  %1 = alloca i32, align 4
  %2 = alloca i32, align 4
  %3 = alloca i32, align 4
  %4 = alloca i32, align 4
  %5 = alloca i32, align 4
  %6 = alloca i32, align 4
  %7 = alloca i32, align 4
  %8 = alloca i32, align 4
  %9 = alloca [11 x [11 x i32]], align 16
  %10 = alloca [11 x [11 x i32]], align 16
  store i32 0, i32* %1, align 4
  %11 = bitcast [11 x [11 x i32]]* %9 to i8*
  call void @llvm.memset.p0i8.i64(i8* align 16 %11, i8 0, i64 484, i1 false)
  %12 = bitcast [11 x [11 x i32]]* %10 to i8*
  call void @llvm.memset.p0i8.i64(i8* align 16 %12, i8 0, i64 484, i1 false)
  %13 = call i32 (i8*, ...) @__isoc99_scanf(i8* getelementptr inbounds ([6 x i8], [6 x i8]* @.str, i64 0, i64 0), i32* %8, i32* %6)
  %14 = load i32, i32* %8, align 4
  %15 = getelementptr inbounds [11 x [11 x i32]], [11 x [11 x i32]]* %10, i64 0, i64 5
  %16 = getelementptr inbounds [11 x i32], [11 x i32]* %15, i64 0, i64 5
  store i32 %14, i32* %16, align 4
  store i32 1, i32* %7, align 4
  br label %17

17:                                               ; preds = %116, %0
  %18 = load i32, i32* %7, align 4
  %19 = load i32, i32* %6, align 4
  %20 = icmp sle i32 %18, %19
  br i1 %20, label %21, label %119

21:                                               ; preds = %17
  store i32 1, i32* %2, align 4
  br label %22

22:                                               ; preds = %47, %21
  %23 = load i32, i32* %2, align 4
  %24 = icmp slt i32 %23, 10
  br i1 %24, label %25, label %50

25:                                               ; preds = %22
  store i32 1, i32* %3, align 4
  br label %26

26:                                               ; preds = %43, %25
  %27 = load i32, i32* %3, align 4
  %28 = icmp slt i32 %27, 10
  br i1 %28, label %29, label %46

29:                                               ; preds = %26
  %30 = load i32, i32* %2, align 4
  %31 = sext i32 %30 to i64
  %32 = getelementptr inbounds [11 x [11 x i32]], [11 x [11 x i32]]* %10, i64 0, i64 %31
  %33 = load i32, i32* %3, align 4
  %34 = sext i32 %33 to i64
  %35 = getelementptr inbounds [11 x i32], [11 x i32]* %32, i64 0, i64 %34
  %36 = load i32, i32* %35, align 4
  %37 = load i32, i32* %2, align 4
  %38 = sext i32 %37 to i64
  %39 = getelementptr inbounds [11 x [11 x i32]], [11 x [11 x i32]]* %9, i64 0, i64 %38
  %40 = load i32, i32* %3, align 4
  %41 = sext i32 %40 to i64
  %42 = getelementptr inbounds [11 x i32], [11 x i32]* %39, i64 0, i64 %41
  store i32 %36, i32* %42, align 4
  br label %43

43:                                               ; preds = %29
  %44 = load i32, i32* %3, align 4
  %45 = add nsw i32 %44, 1
  store i32 %45, i32* %3, align 4
  br label %26

46:                                               ; preds = %26
  br label %47

47:                                               ; preds = %46
  %48 = load i32, i32* %2, align 4
  %49 = add nsw i32 %48, 1
  store i32 %49, i32* %2, align 4
  br label %22

50:                                               ; preds = %22
  %51 = load i32, i32* %7, align 4
  %52 = sub nsw i32 5, %51
  store i32 %52, i32* %2, align 4
  br label %53

53:                                               ; preds = %112, %50
  %54 = load i32, i32* %2, align 4
  %55 = load i32, i32* %7, align 4
  %56 = add nsw i32 5, %55
  %57 = icmp sle i32 %54, %56
  br i1 %57, label %58, label %115

58:                                               ; preds = %53
  %59 = load i32, i32* %7, align 4
  %60 = sub nsw i32 5, %59
  store i32 %60, i32* %3, align 4
  br label %61

61:                                               ; preds = %108, %58
  %62 = load i32, i32* %3, align 4
  %63 = load i32, i32* %7, align 4
  %64 = add nsw i32 5, %63
  %65 = icmp sle i32 %62, %64
  br i1 %65, label %66, label %111

66:                                               ; preds = %61
  store i32 -1, i32* %4, align 4
  br label %67

67:                                               ; preds = %104, %66
  %68 = load i32, i32* %4, align 4
  %69 = icmp sle i32 %68, 1
  br i1 %69, label %70, label %107

70:                                               ; preds = %67
  store i32 -1, i32* %5, align 4
  br label %71

71:                                               ; preds = %100, %70
  %72 = load i32, i32* %5, align 4
  %73 = icmp sle i32 %72, 1
  br i1 %73, label %74, label %103

74:                                               ; preds = %71
  %75 = load i32, i32* %2, align 4
  %76 = sext i32 %75 to i64
  %77 = getelementptr inbounds [11 x [11 x i32]], [11 x [11 x i32]]* %10, i64 0, i64 %76
  %78 = load i32, i32* %3, align 4
  %79 = sext i32 %78 to i64
  %80 = getelementptr inbounds [11 x i32], [11 x i32]* %77, i64 0, i64 %79
  %81 = load i32, i32* %80, align 4
  %82 = load i32, i32* %2, align 4
  %83 = load i32, i32* %5, align 4
  %84 = sub nsw i32 %82, %83
  %85 = sext i32 %84 to i64
  %86 = getelementptr inbounds [11 x [11 x i32]], [11 x [11 x i32]]* %9, i64 0, i64 %85
  %87 = load i32, i32* %3, align 4
  %88 = load i32, i32* %4, align 4
  %89 = sub nsw i32 %87, %88
  %90 = sext i32 %89 to i64
  %91 = getelementptr inbounds [11 x i32], [11 x i32]* %86, i64 0, i64 %90
  %92 = load i32, i32* %91, align 4
  %93 = add nsw i32 %81, %92
  %94 = load i32, i32* %2, align 4
  %95 = sext i32 %94 to i64
  %96 = getelementptr inbounds [11 x [11 x i32]], [11 x [11 x i32]]* %10, i64 0, i64 %95
  %97 = load i32, i32* %3, align 4
  %98 = sext i32 %97 to i64
  %99 = getelementptr inbounds [11 x i32], [11 x i32]* %96, i64 0, i64 %98
  store i32 %93, i32* %99, align 4
  br label %100

100:                                              ; preds = %74
  %101 = load i32, i32* %5, align 4
  %102 = add nsw i32 %101, 1
  store i32 %102, i32* %5, align 4
  br label %71

103:                                              ; preds = %71
  br label %104

104:                                              ; preds = %103
  %105 = load i32, i32* %4, align 4
  %106 = add nsw i32 %105, 1
  store i32 %106, i32* %4, align 4
  br label %67

107:                                              ; preds = %67
  br label %108

108:                                              ; preds = %107
  %109 = load i32, i32* %3, align 4
  %110 = add nsw i32 %109, 1
  store i32 %110, i32* %3, align 4
  br label %61

111:                                              ; preds = %61
  br label %112

112:                                              ; preds = %111
  %113 = load i32, i32* %2, align 4
  %114 = add nsw i32 %113, 1
  store i32 %114, i32* %2, align 4
  br label %53

115:                                              ; preds = %53
  br label %116

116:                                              ; preds = %115
  %117 = load i32, i32* %7, align 4
  %118 = add nsw i32 %117, 1
  store i32 %118, i32* %7, align 4
  br label %17

119:                                              ; preds = %17
  store i32 1, i32* %2, align 4
  br label %120

120:                                              ; preds = %154, %119
  %121 = load i32, i32* %2, align 4
  %122 = icmp slt i32 %121, 10
  br i1 %122, label %123, label %157

123:                                              ; preds = %120
  store i32 1, i32* %3, align 4
  br label %124

124:                                              ; preds = %149, %123
  %125 = load i32, i32* %3, align 4
  %126 = icmp slt i32 %125, 10
  br i1 %126, label %127, label %152

127:                                              ; preds = %124
  %128 = load i32, i32* %3, align 4
  %129 = icmp eq i32 %128, 1
  br i1 %129, label %130, label %139

130:                                              ; preds = %127
  %131 = load i32, i32* %2, align 4
  %132 = sext i32 %131 to i64
  %133 = getelementptr inbounds [11 x [11 x i32]], [11 x [11 x i32]]* %10, i64 0, i64 %132
  %134 = load i32, i32* %3, align 4
  %135 = sext i32 %134 to i64
  %136 = getelementptr inbounds [11 x i32], [11 x i32]* %133, i64 0, i64 %135
  %137 = load i32, i32* %136, align 4
  %138 = call i32 (i8*, ...) @printf(i8* getelementptr inbounds ([3 x i8], [3 x i8]* @.str.1, i64 0, i64 0), i32 %137)
  br label %148

139:                                              ; preds = %127
  %140 = load i32, i32* %2, align 4
  %141 = sext i32 %140 to i64
  %142 = getelementptr inbounds [11 x [11 x i32]], [11 x [11 x i32]]* %10, i64 0, i64 %141
  %143 = load i32, i32* %3, align 4
  %144 = sext i32 %143 to i64
  %145 = getelementptr inbounds [11 x i32], [11 x i32]* %142, i64 0, i64 %144
  %146 = load i32, i32* %145, align 4
  %147 = call i32 (i8*, ...) @printf(i8* getelementptr inbounds ([4 x i8], [4 x i8]* @.str.2, i64 0, i64 0), i32 %146)
  br label %148

148:                                              ; preds = %139, %130
  br label %149

149:                                              ; preds = %148
  %150 = load i32, i32* %3, align 4
  %151 = add nsw i32 %150, 1
  store i32 %151, i32* %3, align 4
  br label %124

152:                                              ; preds = %124
  %153 = call i32 (i8*, ...) @printf(i8* getelementptr inbounds ([2 x i8], [2 x i8]* @.str.3, i64 0, i64 0))
  br label %154

154:                                              ; preds = %152
  %155 = load i32, i32* %2, align 4
  %156 = add nsw i32 %155, 1
  store i32 %156, i32* %2, align 4
  br label %120

157:                                              ; preds = %120
  %158 = load i32, i32* %1, align 4
  ret i32 %158
}

; Function Attrs: argmemonly nounwind willreturn
declare void @llvm.memset.p0i8.i64(i8* nocapture writeonly, i8, i64, i1 immarg) #1

declare dso_local i32 @__isoc99_scanf(i8*, ...) #2

declare dso_local i32 @printf(i8*, ...) #2


!llvm.module.flags = !{!0}
!llvm.ident = !{!1}

!0 = !{i32 1, !"wchar_size", i32 4}
!1 = !{!"clang version 10.0.0-4ubuntu1 "}
