; ModuleID = 'source-C-CXX/47/1760.c'
source_filename = "source-C-CXX/47/1760.c"
target datalayout = "e-m:e-p270:32:32-p271:32:32-p272:64:64-i64:64-f80:128-n8:16:32:64-S128"
target triple = "x86_64-pc-linux-gnu"

@.str = private unnamed_addr constant [6 x i8] c"%d %d\00", align 1
@.str.1 = private unnamed_addr constant [3 x i8] c"%d\00", align 1
@.str.2 = private unnamed_addr constant [4 x i8] c" %d\00", align 1

; Function Attrs: nofree nounwind sspstrong uwtable
define dso_local i32 @main() local_unnamed_addr #0 {
  %1 = alloca i32, align 4
  %2 = alloca i32, align 4
  %3 = alloca [11 x [11 x i32]], align 16
  %4 = alloca [11 x [11 x i32]], align 16
  %5 = bitcast i32* %1 to i8*
  call void @llvm.lifetime.start.p0i8(i64 4, i8* nonnull %5) #6
  %6 = bitcast i32* %2 to i8*
  call void @llvm.lifetime.start.p0i8(i64 4, i8* nonnull %6) #6
  %7 = bitcast [11 x [11 x i32]]* %3 to i8*
  call void @llvm.lifetime.start.p0i8(i64 484, i8* nonnull %7) #6
  call void @llvm.memset.p0i8.i64(i8* noundef nonnull align 16 dereferenceable(484) %7, i8 0, i64 484, i1 false)
  %8 = bitcast [11 x [11 x i32]]* %4 to i8*
  call void @llvm.lifetime.start.p0i8(i64 484, i8* nonnull %8) #6
  call void @llvm.memset.p0i8.i64(i8* noundef nonnull align 16 dereferenceable(484) %8, i8 0, i64 484, i1 false)
  %9 = call i32 (i8*, ...) @__isoc99_scanf(i8* getelementptr inbounds ([6 x i8], [6 x i8]* @.str, i64 0, i64 0), i32* nonnull %2, i32* nonnull %1)
  %10 = load i32, i32* %2, align 4, !tbaa !5
  %11 = getelementptr inbounds [11 x [11 x i32]], [11 x [11 x i32]]* %4, i64 0, i64 5, i64 5
  store i32 %10, i32* %11, align 16, !tbaa !5
  %12 = load i32, i32* %1, align 4, !tbaa !5
  %13 = icmp slt i32 %12, 1
  br i1 %13, label %14, label %15

14:                                               ; preds = %164, %0
  br label %171

15:                                               ; preds = %0
  %16 = getelementptr inbounds [11 x [11 x i32]], [11 x [11 x i32]]* %3, i64 0, i64 1, i64 1
  %17 = bitcast i32* %16 to i8*
  %18 = getelementptr inbounds [11 x [11 x i32]], [11 x [11 x i32]]* %4, i64 0, i64 1, i64 1
  %19 = bitcast i32* %18 to i8*
  %20 = getelementptr inbounds [11 x [11 x i32]], [11 x [11 x i32]]* %3, i64 0, i64 2, i64 1
  %21 = bitcast i32* %20 to i8*
  %22 = getelementptr inbounds [11 x [11 x i32]], [11 x [11 x i32]]* %4, i64 0, i64 2, i64 1
  %23 = bitcast i32* %22 to i8*
  %24 = getelementptr inbounds [11 x [11 x i32]], [11 x [11 x i32]]* %3, i64 0, i64 3, i64 1
  %25 = bitcast i32* %24 to i8*
  %26 = getelementptr inbounds [11 x [11 x i32]], [11 x [11 x i32]]* %4, i64 0, i64 3, i64 1
  %27 = bitcast i32* %26 to i8*
  %28 = getelementptr inbounds [11 x [11 x i32]], [11 x [11 x i32]]* %3, i64 0, i64 4, i64 1
  %29 = bitcast i32* %28 to i8*
  %30 = getelementptr inbounds [11 x [11 x i32]], [11 x [11 x i32]]* %4, i64 0, i64 4, i64 1
  %31 = bitcast i32* %30 to i8*
  %32 = getelementptr inbounds [11 x [11 x i32]], [11 x [11 x i32]]* %3, i64 0, i64 5, i64 1
  %33 = bitcast i32* %32 to i8*
  %34 = getelementptr inbounds [11 x [11 x i32]], [11 x [11 x i32]]* %4, i64 0, i64 5, i64 1
  %35 = bitcast i32* %34 to i8*
  %36 = getelementptr inbounds [11 x [11 x i32]], [11 x [11 x i32]]* %3, i64 0, i64 6, i64 1
  %37 = bitcast i32* %36 to i8*
  %38 = getelementptr inbounds [11 x [11 x i32]], [11 x [11 x i32]]* %4, i64 0, i64 6, i64 1
  %39 = bitcast i32* %38 to i8*
  %40 = getelementptr inbounds [11 x [11 x i32]], [11 x [11 x i32]]* %3, i64 0, i64 7, i64 1
  %41 = bitcast i32* %40 to i8*
  %42 = getelementptr inbounds [11 x [11 x i32]], [11 x [11 x i32]]* %4, i64 0, i64 7, i64 1
  %43 = bitcast i32* %42 to i8*
  %44 = getelementptr inbounds [11 x [11 x i32]], [11 x [11 x i32]]* %3, i64 0, i64 8, i64 1
  %45 = bitcast i32* %44 to i8*
  %46 = getelementptr inbounds [11 x [11 x i32]], [11 x [11 x i32]]* %4, i64 0, i64 8, i64 1
  %47 = bitcast i32* %46 to i8*
  %48 = getelementptr inbounds [11 x [11 x i32]], [11 x [11 x i32]]* %3, i64 0, i64 9, i64 1
  %49 = bitcast i32* %48 to i8*
  %50 = getelementptr inbounds [11 x [11 x i32]], [11 x [11 x i32]]* %4, i64 0, i64 9, i64 1
  %51 = bitcast i32* %50 to i8*
  %52 = add i32 %12, 6
  br label %53

53:                                               ; preds = %15, %164
  %54 = phi i64 [ 0, %15 ], [ %169, %164 ]
  %55 = phi i32 [ 7, %15 ], [ %167, %164 ]
  %56 = phi i64 [ 4, %15 ], [ %166, %164 ]
  %57 = phi i32 [ 1, %15 ], [ %165, %164 ]
  %58 = add i64 %54, -4
  %59 = shl i64 %54, 32
  %60 = add i64 %59, 30064771072
  %61 = ashr exact i64 %60, 32
  %62 = add i64 %58, %61
  call void @llvm.memcpy.p0i8.p0i8.i64(i8* noundef nonnull align 16 dereferenceable(36) %17, i8* noundef nonnull align 16 dereferenceable(36) %19, i64 36, i1 false)
  call void @llvm.memcpy.p0i8.p0i8.i64(i8* noundef nonnull align 4 dereferenceable(36) %21, i8* noundef nonnull align 4 dereferenceable(36) %23, i64 36, i1 false)
  call void @llvm.memcpy.p0i8.p0i8.i64(i8* noundef nonnull align 8 dereferenceable(36) %25, i8* noundef nonnull align 8 dereferenceable(36) %27, i64 36, i1 false)
  call void @llvm.memcpy.p0i8.p0i8.i64(i8* noundef nonnull align 4 dereferenceable(36) %29, i8* noundef nonnull align 4 dereferenceable(36) %31, i64 36, i1 false)
  call void @llvm.memcpy.p0i8.p0i8.i64(i8* noundef nonnull align 16 dereferenceable(36) %33, i8* noundef nonnull align 16 dereferenceable(36) %35, i64 36, i1 false)
  call void @llvm.memcpy.p0i8.p0i8.i64(i8* noundef nonnull align 4 dereferenceable(36) %37, i8* noundef nonnull align 4 dereferenceable(36) %39, i64 36, i1 false)
  call void @llvm.memcpy.p0i8.p0i8.i64(i8* noundef nonnull align 8 dereferenceable(36) %41, i8* noundef nonnull align 8 dereferenceable(36) %43, i64 36, i1 false)
  call void @llvm.memcpy.p0i8.p0i8.i64(i8* noundef nonnull align 4 dereferenceable(36) %45, i8* noundef nonnull align 4 dereferenceable(36) %47, i64 36, i1 false)
  call void @llvm.memcpy.p0i8.p0i8.i64(i8* noundef nonnull align 16 dereferenceable(36) %49, i8* noundef nonnull align 16 dereferenceable(36) %51, i64 36, i1 false)
  %63 = sub nsw i32 5, %57
  %64 = add nuw nsw i32 %57, 5
  %65 = icmp sgt i32 %63, %64
  br i1 %65, label %164, label %66

66:                                               ; preds = %53
  %67 = sext i32 %55 to i64
  %68 = icmp ult i64 %62, 4
  %69 = and i64 %62, -4
  %70 = add i64 %56, %69
  %71 = icmp eq i64 %62, %69
  br label %72

72:                                               ; preds = %66, %161
  %73 = phi i64 [ %56, %66 ], [ %162, %161 ]
  %74 = add nsw i64 %73, 1
  %75 = add nsw i64 %73, -1
  br i1 %68, label %124, label %76

76:                                               ; preds = %72, %76
  %77 = phi i64 [ %121, %76 ], [ 0, %72 ]
  %78 = add i64 %56, %77
  %79 = getelementptr inbounds [11 x [11 x i32]], [11 x [11 x i32]]* %4, i64 0, i64 %73, i64 %78
  %80 = bitcast i32* %79 to <4 x i32>*
  %81 = load <4 x i32>, <4 x i32>* %80, align 4, !tbaa !5
  %82 = add nsw i64 %78, 1
  %83 = getelementptr inbounds [11 x [11 x i32]], [11 x [11 x i32]]* %3, i64 0, i64 %74, i64 %82
  %84 = bitcast i32* %83 to <4 x i32>*
  %85 = load <4 x i32>, <4 x i32>* %84, align 4, !tbaa !5
  %86 = add nsw <4 x i32> %85, %81
  %87 = getelementptr inbounds [11 x [11 x i32]], [11 x [11 x i32]]* %3, i64 0, i64 %73, i64 %82
  %88 = bitcast i32* %87 to <4 x i32>*
  %89 = load <4 x i32>, <4 x i32>* %88, align 4, !tbaa !5
  %90 = add nsw <4 x i32> %89, %86
  %91 = getelementptr inbounds [11 x [11 x i32]], [11 x [11 x i32]]* %3, i64 0, i64 %75, i64 %82
  %92 = bitcast i32* %91 to <4 x i32>*
  %93 = load <4 x i32>, <4 x i32>* %92, align 4, !tbaa !5
  %94 = add nsw <4 x i32> %93, %90
  %95 = getelementptr inbounds [11 x [11 x i32]], [11 x [11 x i32]]* %3, i64 0, i64 %74, i64 %78
  %96 = bitcast i32* %95 to <4 x i32>*
  %97 = load <4 x i32>, <4 x i32>* %96, align 4, !tbaa !5
  %98 = add nsw <4 x i32> %97, %94
  %99 = getelementptr inbounds [11 x [11 x i32]], [11 x [11 x i32]]* %3, i64 0, i64 %73, i64 %78
  %100 = bitcast i32* %99 to <4 x i32>*
  %101 = load <4 x i32>, <4 x i32>* %100, align 4, !tbaa !5
  %102 = add nsw <4 x i32> %101, %98
  %103 = getelementptr inbounds [11 x [11 x i32]], [11 x [11 x i32]]* %3, i64 0, i64 %75, i64 %78
  %104 = bitcast i32* %103 to <4 x i32>*
  %105 = load <4 x i32>, <4 x i32>* %104, align 4, !tbaa !5
  %106 = add nsw <4 x i32> %105, %102
  %107 = add nsw i64 %78, -1
  %108 = getelementptr inbounds [11 x [11 x i32]], [11 x [11 x i32]]* %3, i64 0, i64 %74, i64 %107
  %109 = bitcast i32* %108 to <4 x i32>*
  %110 = load <4 x i32>, <4 x i32>* %109, align 4, !tbaa !5
  %111 = add nsw <4 x i32> %110, %106
  %112 = getelementptr inbounds [11 x [11 x i32]], [11 x [11 x i32]]* %3, i64 0, i64 %73, i64 %107
  %113 = bitcast i32* %112 to <4 x i32>*
  %114 = load <4 x i32>, <4 x i32>* %113, align 4, !tbaa !5
  %115 = add nsw <4 x i32> %114, %111
  %116 = getelementptr inbounds [11 x [11 x i32]], [11 x [11 x i32]]* %3, i64 0, i64 %75, i64 %107
  %117 = bitcast i32* %116 to <4 x i32>*
  %118 = load <4 x i32>, <4 x i32>* %117, align 4, !tbaa !5
  %119 = add nsw <4 x i32> %118, %115
  %120 = bitcast i32* %79 to <4 x i32>*
  store <4 x i32> %119, <4 x i32>* %120, align 4, !tbaa !5
  %121 = add nuw i64 %77, 4
  %122 = icmp eq i64 %121, %69
  br i1 %122, label %123, label %76, !llvm.loop !9

123:                                              ; preds = %76
  br i1 %71, label %161, label %124

124:                                              ; preds = %72, %123
  %125 = phi i64 [ %56, %72 ], [ %70, %123 ]
  br label %126

126:                                              ; preds = %124, %126
  %127 = phi i64 [ %159, %126 ], [ %125, %124 ]
  %128 = getelementptr inbounds [11 x [11 x i32]], [11 x [11 x i32]]* %4, i64 0, i64 %73, i64 %127
  %129 = load i32, i32* %128, align 4, !tbaa !5
  %130 = add nsw i64 %127, 1
  %131 = getelementptr inbounds [11 x [11 x i32]], [11 x [11 x i32]]* %3, i64 0, i64 %74, i64 %130
  %132 = load i32, i32* %131, align 4, !tbaa !5
  %133 = add nsw i32 %132, %129
  %134 = getelementptr inbounds [11 x [11 x i32]], [11 x [11 x i32]]* %3, i64 0, i64 %73, i64 %130
  %135 = load i32, i32* %134, align 4, !tbaa !5
  %136 = add nsw i32 %135, %133
  %137 = getelementptr inbounds [11 x [11 x i32]], [11 x [11 x i32]]* %3, i64 0, i64 %75, i64 %130
  %138 = load i32, i32* %137, align 4, !tbaa !5
  %139 = add nsw i32 %138, %136
  %140 = getelementptr inbounds [11 x [11 x i32]], [11 x [11 x i32]]* %3, i64 0, i64 %74, i64 %127
  %141 = load i32, i32* %140, align 4, !tbaa !5
  %142 = add nsw i32 %141, %139
  %143 = getelementptr inbounds [11 x [11 x i32]], [11 x [11 x i32]]* %3, i64 0, i64 %73, i64 %127
  %144 = load i32, i32* %143, align 4, !tbaa !5
  %145 = add nsw i32 %144, %142
  %146 = getelementptr inbounds [11 x [11 x i32]], [11 x [11 x i32]]* %3, i64 0, i64 %75, i64 %127
  %147 = load i32, i32* %146, align 4, !tbaa !5
  %148 = add nsw i32 %147, %145
  %149 = add nsw i64 %127, -1
  %150 = getelementptr inbounds [11 x [11 x i32]], [11 x [11 x i32]]* %3, i64 0, i64 %74, i64 %149
  %151 = load i32, i32* %150, align 4, !tbaa !5
  %152 = add nsw i32 %151, %148
  %153 = getelementptr inbounds [11 x [11 x i32]], [11 x [11 x i32]]* %3, i64 0, i64 %73, i64 %149
  %154 = load i32, i32* %153, align 4, !tbaa !5
  %155 = add nsw i32 %154, %152
  %156 = getelementptr inbounds [11 x [11 x i32]], [11 x [11 x i32]]* %3, i64 0, i64 %75, i64 %149
  %157 = load i32, i32* %156, align 4, !tbaa !5
  %158 = add nsw i32 %157, %155
  store i32 %158, i32* %128, align 4, !tbaa !5
  %159 = add nsw i64 %127, 1
  %160 = icmp eq i64 %159, %67
  br i1 %160, label %161, label %126, !llvm.loop !12

161:                                              ; preds = %126, %123
  %162 = add nsw i64 %73, 1
  %163 = icmp eq i64 %162, %67
  br i1 %163, label %164, label %72, !llvm.loop !14

164:                                              ; preds = %161, %53
  %165 = add nuw nsw i32 %57, 1
  %166 = add nsw i64 %56, -1
  %167 = add nuw i32 %55, 1
  %168 = icmp eq i32 %55, %52
  %169 = add i64 %54, 1
  br i1 %168, label %14, label %53, !llvm.loop !15

170:                                              ; preds = %171
  call void @llvm.lifetime.end.p0i8(i64 484, i8* nonnull %8) #6
  call void @llvm.lifetime.end.p0i8(i64 484, i8* nonnull %7) #6
  call void @llvm.lifetime.end.p0i8(i64 4, i8* nonnull %6) #6
  call void @llvm.lifetime.end.p0i8(i64 4, i8* nonnull %5) #6
  ret i32 0

171:                                              ; preds = %14, %171
  %172 = phi i64 [ %201, %171 ], [ 1, %14 ]
  %173 = getelementptr inbounds [11 x [11 x i32]], [11 x [11 x i32]]* %4, i64 0, i64 %172, i64 1
  %174 = load i32, i32* %173, align 4, !tbaa !5
  %175 = call i32 (i8*, ...) @printf(i8* nonnull dereferenceable(1) getelementptr inbounds ([3 x i8], [3 x i8]* @.str.1, i64 0, i64 0), i32 %174)
  %176 = getelementptr inbounds [11 x [11 x i32]], [11 x [11 x i32]]* %4, i64 0, i64 %172, i64 2
  %177 = load i32, i32* %176, align 4, !tbaa !5
  %178 = call i32 (i8*, ...) @printf(i8* nonnull dereferenceable(1) getelementptr inbounds ([4 x i8], [4 x i8]* @.str.2, i64 0, i64 0), i32 %177)
  %179 = getelementptr inbounds [11 x [11 x i32]], [11 x [11 x i32]]* %4, i64 0, i64 %172, i64 3
  %180 = load i32, i32* %179, align 4, !tbaa !5
  %181 = call i32 (i8*, ...) @printf(i8* nonnull dereferenceable(1) getelementptr inbounds ([4 x i8], [4 x i8]* @.str.2, i64 0, i64 0), i32 %180)
  %182 = getelementptr inbounds [11 x [11 x i32]], [11 x [11 x i32]]* %4, i64 0, i64 %172, i64 4
  %183 = load i32, i32* %182, align 4, !tbaa !5
  %184 = call i32 (i8*, ...) @printf(i8* nonnull dereferenceable(1) getelementptr inbounds ([4 x i8], [4 x i8]* @.str.2, i64 0, i64 0), i32 %183)
  %185 = getelementptr inbounds [11 x [11 x i32]], [11 x [11 x i32]]* %4, i64 0, i64 %172, i64 5
  %186 = load i32, i32* %185, align 4, !tbaa !5
  %187 = call i32 (i8*, ...) @printf(i8* nonnull dereferenceable(1) getelementptr inbounds ([4 x i8], [4 x i8]* @.str.2, i64 0, i64 0), i32 %186)
  %188 = getelementptr inbounds [11 x [11 x i32]], [11 x [11 x i32]]* %4, i64 0, i64 %172, i64 6
  %189 = load i32, i32* %188, align 4, !tbaa !5
  %190 = call i32 (i8*, ...) @printf(i8* nonnull dereferenceable(1) getelementptr inbounds ([4 x i8], [4 x i8]* @.str.2, i64 0, i64 0), i32 %189)
  %191 = getelementptr inbounds [11 x [11 x i32]], [11 x [11 x i32]]* %4, i64 0, i64 %172, i64 7
  %192 = load i32, i32* %191, align 4, !tbaa !5
  %193 = call i32 (i8*, ...) @printf(i8* nonnull dereferenceable(1) getelementptr inbounds ([4 x i8], [4 x i8]* @.str.2, i64 0, i64 0), i32 %192)
  %194 = getelementptr inbounds [11 x [11 x i32]], [11 x [11 x i32]]* %4, i64 0, i64 %172, i64 8
  %195 = load i32, i32* %194, align 4, !tbaa !5
  %196 = call i32 (i8*, ...) @printf(i8* nonnull dereferenceable(1) getelementptr inbounds ([4 x i8], [4 x i8]* @.str.2, i64 0, i64 0), i32 %195)
  %197 = getelementptr inbounds [11 x [11 x i32]], [11 x [11 x i32]]* %4, i64 0, i64 %172, i64 9
  %198 = load i32, i32* %197, align 4, !tbaa !5
  %199 = call i32 (i8*, ...) @printf(i8* nonnull dereferenceable(1) getelementptr inbounds ([4 x i8], [4 x i8]* @.str.2, i64 0, i64 0), i32 %198)
  %200 = call i32 @putchar(i32 10)
  %201 = add nuw nsw i64 %172, 1
  %202 = icmp eq i64 %201, 10
  br i1 %202, label %170, label %171, !llvm.loop !16
}

; Function Attrs: argmemonly mustprogress nofree nosync nounwind willreturn
declare void @llvm.lifetime.start.p0i8(i64 immarg, i8* nocapture) #1

; Function Attrs: argmemonly mustprogress nofree nounwind willreturn writeonly
declare void @llvm.memset.p0i8.i64(i8* nocapture writeonly, i8, i64, i1 immarg) #2

; Function Attrs: nofree nounwind
declare noundef i32 @__isoc99_scanf(i8* nocapture noundef readonly, ...) local_unnamed_addr #3

; Function Attrs: nofree nounwind
declare noundef i32 @printf(i8* nocapture noundef readonly, ...) local_unnamed_addr #3

; Function Attrs: argmemonly mustprogress nofree nosync nounwind willreturn
declare void @llvm.lifetime.end.p0i8(i64 immarg, i8* nocapture) #1

; Function Attrs: nofree nounwind
declare noundef i32 @putchar(i32 noundef) local_unnamed_addr #4

; Function Attrs: argmemonly nofree nounwind willreturn
declare void @llvm.memcpy.p0i8.p0i8.i64(i8* noalias nocapture writeonly, i8* noalias nocapture readonly, i64, i1 immarg) #5


!llvm.module.flags = !{!0, !1, !2, !3}
!llvm.ident = !{!4}

!0 = !{i32 1, !"wchar_size", i32 4}
!1 = !{i32 7, !"PIC Level", i32 2}
!2 = !{i32 7, !"PIE Level", i32 2}
!3 = !{i32 7, !"uwtable", i32 1}
!4 = !{!"clang version 13.0.0"}
!5 = !{!6, !6, i64 0}
!6 = !{!"int", !7, i64 0}
!7 = !{!"omnipotent char", !8, i64 0}
!8 = !{!"Simple C/C++ TBAA"}
!9 = distinct !{!9, !10, !11}
!10 = !{!"llvm.loop.mustprogress"}
!11 = !{!"llvm.loop.isvectorized", i32 1}
!12 = distinct !{!12, !10, !13, !11}
!13 = !{!"llvm.loop.unroll.runtime.disable"}
!14 = distinct !{!14, !10}
!15 = distinct !{!15, !10}
!16 = distinct !{!16, !10}
